; Listing generated by Microsoft (R) Optimizing Compiler Version 19.29.30148.0 

	TITLE	D:\CPP\HelloWorld\HelloWorld\Debug\Main.obj
	.686P
	.XMM
	include listing.inc
	.model	flat

INCLUDELIB MSVCRTD
INCLUDELIB OLDNAMES

msvcjmc	SEGMENT
__7EF15989_vcruntime_new@h DB 01H
__9FA8BB4C_corecrt_math@h DB 01H
__651F9E88_stdlib@h DB 01H
__1998DBF6_cstdlib DB 01H
__DEB63200_cmath DB 01H
__4C2892DF_corecrt_stdio_config@h DB 01H
__93572EE7_corecrt_wstdio@h DB 01H
__5F67261C_stdio@h DB 01H
__C40B9FB8_corecrt_memcpy_s@h DB 01H
__B698C7EE_corecrt_memory@h DB 01H
__C9CF11B0_corecrt_wstring@h DB 01H
__E36C0A2C_string@h DB 01H
__D72858D0_corecrt_wconio@h DB 01H
__D1540E55_corecrt_wio@h DB 01H
__D96B3561_corecrt_wtime@h DB 01H
__187702CE_stat@h DB 01H
__A141C5E1_wchar@h DB 01H
__FE6BEEDE_type_traits DB 01H
__DB176F4B_xutility DB 01H
__F132B97E_malloc@h DB 01H
__2161F593_vcruntime_exception@h DB 01H
__57EB61D1_exception DB 01H
__755B5067_limits DB 01H
__44003DBE_xmemory DB 01H
__30D3BB22_xstring DB 01H
__DEA55B8C_stdexcept DB 01H
__89CC4542_xcall_once@h DB 01H
__E5145BD5_time@h DB 01H
__95A9E105_xthreads@h DB 01H
__1E6E0CA5_atomic DB 01H
__36915762_system_error DB 01H
__C10E8987_vcruntime_typeinfo@h DB 01H
__ABC89C52_typeinfo DB 01H
__C9F55CE9_memory DB 01H
__E5B00BE6_xfacet DB 01H
__804F7422_ctype@h DB 01H
__B4417F9A_xlocinfo DB 01H
__EFEDCF13_xlocale DB 01H
__8DA40889_xiosbase DB 01H
__716AA904_xlocnum DB 01H
__0DB72DE2_ios DB 01H
__56854B9A_Main@cpp DB 01H
__9F2D20ED_istream DB 01H
__FCFD15D7_ostream DB 01H
__DC05E330_streambuf DB 01H
__CABBD80B_iterator DB 01H
__B9B285E1_iosfwd DB 01H
__2E955E7D_utility DB 01H
__D98AC96F_xstddef DB 01H
__5DE7ED07_xatomic@h DB 01H
msvcjmc	ENDS
PUBLIC	?__empty_global_delete@@YAXPAX@Z		; __empty_global_delete
PUBLIC	?__empty_global_delete@@YAXPAXI@Z		; __empty_global_delete
PUBLIC	_main
PUBLIC	??$endl@DU?$char_traits@D@std@@@std@@YAAAV?$basic_ostream@DU?$char_traits@D@std@@@0@AAV10@@Z ; std::endl<char,std::char_traits<char> >
PUBLIC	__JustMyCode_Default
EXTRN	__imp_?widen@?$basic_ios@DU?$char_traits@D@std@@@std@@QBEDD@Z:PROC
EXTRN	__imp_??6?$basic_ostream@DU?$char_traits@D@std@@@std@@QAEAAV01@P6AAAV01@AAV01@@Z@Z:PROC
EXTRN	__imp_??6?$basic_ostream@DU?$char_traits@D@std@@@std@@QAEAAV01@H@Z:PROC
EXTRN	__imp_?put@?$basic_ostream@DU?$char_traits@D@std@@@std@@QAEAAV12@D@Z:PROC
EXTRN	__imp_?flush@?$basic_ostream@DU?$char_traits@D@std@@@std@@QAEAAV12@XZ:PROC
EXTRN	__imp_?get@?$basic_istream@DU?$char_traits@D@std@@@std@@QAEHXZ:PROC
EXTRN	?Math@@YAHHH@Z:PROC				; Math
EXTRN	@__CheckForDebuggerJustMyCode@4:PROC
EXTRN	__imp_?cin@std@@3V?$basic_istream@DU?$char_traits@D@std@@@1@A:BYTE
EXTRN	__imp_?cout@std@@3V?$basic_ostream@DU?$char_traits@D@std@@@1@A:BYTE
; Function compile flags: /Odt
;	COMDAT __JustMyCode_Default
_TEXT	SEGMENT
__JustMyCode_Default PROC				; COMDAT
	push	ebp
	mov	ebp, esp
	pop	ebp
	ret	0
__JustMyCode_Default ENDP
_TEXT	ENDS
; Function compile flags: /Ogtp
;	COMDAT ??$endl@DU?$char_traits@D@std@@@std@@YAAAV?$basic_ostream@DU?$char_traits@D@std@@@0@AAV10@@Z
_TEXT	SEGMENT
__Ostr$ = 8						; size = 4
??$endl@DU?$char_traits@D@std@@@std@@YAAAV?$basic_ostream@DU?$char_traits@D@std@@@0@AAV10@@Z PROC ; std::endl<char,std::char_traits<char> >, COMDAT
; File D:\VS2019\VC\Tools\MSVC\14.29.30133\include\ostream
; Line 974
	push	ebp
	mov	ebp, esp
	push	esi
	mov	ecx, OFFSET __FCFD15D7_ostream
	call	@__CheckForDebuggerJustMyCode@4
	mov	esi, DWORD PTR __Ostr$[ebp]
	push	10					; 0000000aH
	mov	eax, DWORD PTR [esi]
	mov	ecx, DWORD PTR [eax+4]
	add	ecx, esi
	call	DWORD PTR __imp_?widen@?$basic_ios@DU?$char_traits@D@std@@@std@@QBEDD@Z
	movzx	ecx, al
	push	ecx
	mov	ecx, esi
	call	DWORD PTR __imp_?put@?$basic_ostream@DU?$char_traits@D@std@@@std@@QAEAAV12@D@Z
	mov	ecx, esi
	call	DWORD PTR __imp_?flush@?$basic_ostream@DU?$char_traits@D@std@@@std@@QAEAAV12@XZ
	mov	eax, esi
	pop	esi
; Line 978
	pop	ebp
	ret	0
??$endl@DU?$char_traits@D@std@@@std@@YAAAV?$basic_ostream@DU?$char_traits@D@std@@@0@AAV10@@Z ENDP ; std::endl<char,std::char_traits<char> >
_TEXT	ENDS
; Function compile flags: /Ogtp
;	COMDAT _main
_TEXT	SEGMENT
_main	PROC						; COMDAT
; File D:\CPP\HelloWorld\HelloWorld\Main.cpp
; Line 8
	push	esi
	mov	ecx, OFFSET __56854B9A_Main@cpp
	call	@__CheckForDebuggerJustMyCode@4
	push	2
	push	1
	call	?Math@@YAHHH@Z				; Math
	mov	ecx, DWORD PTR __imp_?cout@std@@3V?$basic_ostream@DU?$char_traits@D@std@@@1@A
	add	esp, 8
	push	OFFSET ??$endl@DU?$char_traits@D@std@@@std@@YAAAV?$basic_ostream@DU?$char_traits@D@std@@@0@AAV10@@Z ; std::endl<char,std::char_traits<char> >
	push	eax
	call	DWORD PTR __imp_??6?$basic_ostream@DU?$char_traits@D@std@@@std@@QAEAAV01@H@Z
	mov	ecx, eax
	call	DWORD PTR __imp_??6?$basic_ostream@DU?$char_traits@D@std@@@std@@QAEAAV01@P6AAAV01@AAV01@@Z@Z
	xor	esi, esi
$LL4@main:
; Line 18
	mov	ecx, DWORD PTR __imp_?cout@std@@3V?$basic_ostream@DU?$char_traits@D@std@@@1@A
	push	esi
	call	DWORD PTR __imp_??6?$basic_ostream@DU?$char_traits@D@std@@@std@@QAEAAV01@H@Z
	push	OFFSET ??$endl@DU?$char_traits@D@std@@@std@@YAAAV?$basic_ostream@DU?$char_traits@D@std@@@0@AAV10@@Z ; std::endl<char,std::char_traits<char> >
	mov	ecx, eax
	inc	esi
	call	DWORD PTR __imp_??6?$basic_ostream@DU?$char_traits@D@std@@@std@@QAEAAV01@P6AAAV01@AAV01@@Z@Z
; Line 19
	cmp	esi, 5
	jl	SHORT $LL4@main
; Line 20
	mov	ecx, DWORD PTR __imp_?cin@std@@3V?$basic_istream@DU?$char_traits@D@std@@@1@A
	call	DWORD PTR __imp_?get@?$basic_istream@DU?$char_traits@D@std@@@std@@QAEHXZ
; Line 22
	xor	eax, eax
	pop	esi
	ret	0
_main	ENDP
_TEXT	ENDS
; Function compile flags: /Ogtp
;	COMDAT ?__empty_global_delete@@YAXPAXI@Z
_TEXT	SEGMENT
___formal$ = 8						; size = 4
___formal$ = 12						; size = 4
?__empty_global_delete@@YAXPAXI@Z PROC			; __empty_global_delete, COMDAT
; File D:\CPP\HelloWorld\HelloWorld\Main.cpp
	mov	ecx, OFFSET __56854B9A_Main@cpp
	jmp	@__CheckForDebuggerJustMyCode@4
?__empty_global_delete@@YAXPAXI@Z ENDP			; __empty_global_delete
_TEXT	ENDS
; Function compile flags: /Ogtp
;	COMDAT ?__empty_global_delete@@YAXPAX@Z
_TEXT	SEGMENT
___formal$ = 8						; size = 4
?__empty_global_delete@@YAXPAX@Z PROC			; __empty_global_delete, COMDAT
; File D:\CPP\HelloWorld\HelloWorld\Main.cpp
	mov	ecx, OFFSET __56854B9A_Main@cpp
	jmp	@__CheckForDebuggerJustMyCode@4
?__empty_global_delete@@YAXPAX@Z ENDP			; __empty_global_delete
_TEXT	ENDS
END
